(lp0
(S'cppflags'
p1
ccopy_reg
_reconstructor
p2
(cino.utils
SpaceList
p3
c__builtin__
list
p4
(lp5
S'-mmcu=atmega328p'
p6
aS'-DF_CPU=16000000L'
p7
aS'-DARDUINO=101'
p8
aS'-I/usr/share/arduino/hardware/arduino/cores/arduino'
p9
aS'-ffunction-sections'
p10
aS'-fdata-sections'
p11
aS'-g'
p12
aS'-Os'
p13
aS'-w'
p14
aS'-I/usr/share/arduino/hardware/arduino/variants/standard'
p15
aS'-I/usr/share/arduino/libraries/Servo'
p16
aS'-I/usr/share/arduino/libraries/SoftwareSerial'
p17
aS'-I/usr/share/arduino/libraries/Wire'
p18
aS'-I/usr/share/arduino/libraries/Wire/utility'
p19
aS'-I/usr/share/arduino/hardware/arduino/cores/arduino'
p20
atp21
Rp22
tp23
a(S'cxx'
p24
S'/usr/bin/avr-g++'
p25
tp26
a(S'build_dir'
p27
S'.build/uno'
p28
tp29
a(S'avrdude'
p30
S'/usr/share/arduino/hardware/tools/avrdude'
p31
tp32
a(S'ar'
p33
S'/usr/bin/avr-ar'
p34
tp35
a(S'names'
p36
(dp37
S'cpp'
p38
S'%s.cpp'
p39
sS'obj'
p40
S'%s.o'
p41
sS'deps'
p42
S'%s.d'
p43
sS'lib'
p44
S'lib%s.a'
p45
stp46
a(S'ldflags'
p47
g2
(g3
g4
(lp48
g6
aS'-Wl,-Os'
p49
aS'-Wl,--gc-sections'
p50
atp51
Rp52
tp53
a(S'arduino_lib_version'
p54
g2
(cino.environment
Version
p55
c__builtin__
tuple
p56
(I1
I0
I1
tp57
tp58
Rp59
tp60
a(S'objcopy'
p61
S'/usr/bin/avr-objcopy'
p62
tp63
a(S'board_models'
p64
cino.environment
BoardModels
p65
((lp66
(lp67
S'uno'
p68
a(dp69
S'bootloader'
p70
(dp71
S'extended_fuses'
p72
S'0x05'
p73
sS'high_fuses'
p74
S'0xde'
p75
sS'low_fuses'
p76
S'0xff'
p77
sS'lock_bits'
p78
S'0x0F'
p79
sS'file'
p80
S'optiboot_atmega328.hex'
p81
sS'path'
p82
S'optiboot'
p83
sS'unlock_bits'
p84
S'0x3F'
p85
ssS'upload'
p86
(dp87
S'speed'
p88
S'115200'
p89
sS'maximum_size'
p90
S'32256'
p91
sS'protocol'
p92
S'arduino'
p93
ssS'name'
p94
S'Arduino Uno'
p95
sS'build'
p96
(dp97
S'core'
p98
S'arduino'
p99
sS'mcu'
p100
S'atmega328p'
p101
sS'f_cpu'
p102
S'16000000L'
p103
sS'variant'
p104
S'standard'
p105
ssaa(lp106
S'atmega328'
p107
a(dp108
S'bootloader'
p109
(dp110
S'extended_fuses'
p111
S'0x05'
p112
sS'high_fuses'
p113
S'0xDA'
p114
sS'low_fuses'
p115
S'0xFF'
p116
sS'lock_bits'
p117
S'0x0F'
p118
sS'file'
p119
S'ATmegaBOOT_168_atmega328.hex'
p120
sS'path'
p121
S'atmega'
p122
sS'unlock_bits'
p123
S'0x3F'
p124
ssS'upload'
p125
(dp126
S'speed'
p127
S'57600'
p128
sS'maximum_size'
p129
S'30720'
p130
sS'protocol'
p131
S'arduino'
p132
ssS'name'
p133
S'Arduino Duemilanove w/ ATmega328'
p134
sS'build'
p135
(dp136
S'core'
p137
S'arduino'
p138
sS'mcu'
p139
S'atmega328p'
p140
sS'f_cpu'
p141
S'16000000L'
p142
sS'variant'
p143
S'standard'
p144
ssaa(lp145
S'diecimila'
p146
a(dp147
S'bootloader'
p148
(dp149
S'extended_fuses'
p150
S'0x00'
p151
sS'high_fuses'
p152
S'0xdd'
p153
sS'low_fuses'
p154
S'0xff'
p155
sS'lock_bits'
p156
S'0x0F'
p157
sS'file'
p158
S'ATmegaBOOT_168_diecimila.hex'
p159
sS'path'
p160
S'atmega'
p161
sS'unlock_bits'
p162
S'0x3F'
p163
ssS'upload'
p164
(dp165
S'speed'
p166
S'19200'
p167
sS'maximum_size'
p168
S'14336'
p169
sS'protocol'
p170
S'arduino'
p171
ssS'name'
p172
S'Arduino Diecimila or Duemilanove w/ ATmega168'
p173
sS'build'
p174
(dp175
S'core'
p176
S'arduino'
p177
sS'mcu'
p178
S'atmega168'
p179
sS'f_cpu'
p180
S'16000000L'
p181
sS'variant'
p182
S'standard'
p183
ssaa(lp184
S'nano328'
p185
a(dp186
S'bootloader'
p187
(dp188
S'extended_fuses'
p189
S'0x05'
p190
sS'high_fuses'
p191
S'0xDA'
p192
sS'low_fuses'
p193
S'0xFF'
p194
sS'lock_bits'
p195
S'0x0F'
p196
sS'file'
p197
S'ATmegaBOOT_168_atmega328.hex'
p198
sS'path'
p199
S'atmega'
p200
sS'unlock_bits'
p201
S'0x3F'
p202
ssS'upload'
p203
(dp204
S'speed'
p205
S'57600'
p206
sS'maximum_size'
p207
S'30720'
p208
sS'protocol'
p209
S'arduino'
p210
ssS'name'
p211
S'Arduino Nano w/ ATmega328'
p212
sS'build'
p213
(dp214
S'core'
p215
S'arduino'
p216
sS'mcu'
p217
S'atmega328p'
p218
sS'f_cpu'
p219
S'16000000L'
p220
sS'variant'
p221
S'eightanaloginputs'
p222
ssaa(lp223
S'nano'
p224
a(dp225
S'bootloader'
p226
(dp227
S'extended_fuses'
p228
S'0x00'
p229
sS'high_fuses'
p230
S'0xdd'
p231
sS'low_fuses'
p232
S'0xff'
p233
sS'lock_bits'
p234
S'0x0F'
p235
sS'file'
p236
S'ATmegaBOOT_168_diecimila.hex'
p237
sS'path'
p238
S'atmega'
p239
sS'unlock_bits'
p240
S'0x3F'
p241
ssS'upload'
p242
(dp243
S'speed'
p244
S'19200'
p245
sS'maximum_size'
p246
S'14336'
p247
sS'protocol'
p248
S'arduino'
p249
ssS'name'
p250
S'Arduino Nano w/ ATmega168'
p251
sS'build'
p252
(dp253
S'core'
p254
S'arduino'
p255
sS'mcu'
p256
S'atmega168'
p257
sS'f_cpu'
p258
S'16000000L'
p259
sS'variant'
p260
S'eightanaloginputs'
p261
ssaa(lp262
S'mega2560'
p263
a(dp264
S'bootloader'
p265
(dp266
S'extended_fuses'
p267
S'0xFD'
p268
sS'high_fuses'
p269
S'0xD8'
p270
sS'low_fuses'
p271
S'0xFF'
p272
sS'lock_bits'
p273
S'0x0F'
p274
sS'file'
p275
S'stk500boot_v2_mega2560.hex'
p276
sS'path'
p277
S'stk500v2'
p278
sS'unlock_bits'
p279
S'0x3F'
p280
ssS'upload'
p281
(dp282
S'speed'
p283
S'115200'
p284
sS'maximum_size'
p285
S'258048'
p286
sS'protocol'
p287
S'stk500v2'
p288
ssS'name'
p289
S'Arduino Mega 2560 or Mega ADK'
p290
sS'build'
p291
(dp292
S'core'
p293
S'arduino'
p294
sS'mcu'
p295
S'atmega2560'
p296
sS'f_cpu'
p297
S'16000000L'
p298
sS'variant'
p299
S'mega'
p300
ssaa(lp301
S'mega'
p302
a(dp303
S'bootloader'
p304
(dp305
S'extended_fuses'
p306
S'0xF5'
p307
sS'high_fuses'
p308
S'0xDA'
p309
sS'low_fuses'
p310
S'0xFF'
p311
sS'lock_bits'
p312
S'0x0F'
p313
sS'file'
p314
S'ATmegaBOOT_168_atmega1280.hex'
p315
sS'path'
p316
S'atmega'
p317
sS'unlock_bits'
p318
S'0x3F'
p319
ssS'upload'
p320
(dp321
S'speed'
p322
S'57600'
p323
sS'maximum_size'
p324
S'126976'
p325
sS'protocol'
p326
S'arduino'
p327
ssS'name'
p328
S'Arduino Mega (ATmega1280)'
p329
sS'build'
p330
(dp331
S'core'
p332
S'arduino'
p333
sS'mcu'
p334
S'atmega1280'
p335
sS'f_cpu'
p336
S'16000000L'
p337
sS'variant'
p338
S'mega'
p339
ssaa(lp340
S'leonardo'
p341
a(dp342
S'bootloader'
p343
(dp344
S'extended_fuses'
p345
S'0xcb'
p346
sS'high_fuses'
p347
S'0xd8'
p348
sS'low_fuses'
p349
S'0xff'
p350
sS'lock_bits'
p351
S'0x2F'
p352
sS'file'
p353
S'Caterina-Leonardo.hex'
p354
sS'path'
p355
S'caterina'
p356
sS'unlock_bits'
p357
S'0x3F'
p358
ssS'upload'
p359
(dp360
S'speed'
p361
S'57600'
p362
sS'maximum_size'
p363
S'28672'
p364
sS'protocol'
p365
S'avr109'
p366
sS'disable_flushing'
p367
S'true'
p368
ssS'name'
p369
S'Arduino Leonardo'
p370
sS'build'
p371
(dp372
S'core'
p373
S'arduino'
p374
sS'f_cpu'
p375
S'16000000L'
p376
sS'vid'
p377
S'0x2341'
p378
sS'pid'
p379
S'0x8036'
p380
sS'variant'
p381
S'leonardo'
p382
sS'mcu'
p383
S'atmega32u4'
p384
ssaa(lp385
S'mini328'
p386
a(dp387
S'bootloader'
p388
(dp389
S'extended_fuses'
p390
S'0x05'
p391
sS'high_fuses'
p392
S'0xd8'
p393
sS'low_fuses'
p394
S'0xff'
p395
sS'lock_bits'
p396
S'0x0F'
p397
sS'file'
p398
S'optiboot_atmega328-Mini.hex'
p399
sS'path'
p400
S'optiboot'
p401
sS'unlock_bits'
p402
S'0x3F'
p403
ssS'upload'
p404
(dp405
S'speed'
p406
S'115200'
p407
sS'maximum_size'
p408
S'28672'
p409
sS'protocol'
p410
S'arduino'
p411
ssS'name'
p412
S'Arduino Mini w/ ATmega328'
p413
sS'build'
p414
(dp415
S'core'
p416
S'arduino'
p417
sS'mcu'
p418
S'atmega328p'
p419
sS'f_cpu'
p420
S'16000000L'
p421
sS'variant'
p422
S'eightanaloginputs'
p423
ssaa(lp424
S'mini'
p425
a(dp426
S'bootloader'
p427
(dp428
S'extended_fuses'
p429
S'0x00'
p430
sS'high_fuses'
p431
S'0xdd'
p432
sS'low_fuses'
p433
S'0xff'
p434
sS'lock_bits'
p435
S'0x0F'
p436
sS'file'
p437
S'ATmegaBOOT_168_ng.hex'
p438
sS'path'
p439
S'atmega'
p440
sS'unlock_bits'
p441
S'0x3F'
p442
ssS'upload'
p443
(dp444
S'speed'
p445
S'19200'
p446
sS'maximum_size'
p447
S'14336'
p448
sS'protocol'
p449
S'arduino'
p450
ssS'name'
p451
S'Arduino Mini w/ ATmega168'
p452
sS'build'
p453
(dp454
S'core'
p455
S'arduino'
p456
sS'mcu'
p457
S'atmega168'
p458
sS'f_cpu'
p459
S'16000000L'
p460
sS'variant'
p461
S'eightanaloginputs'
p462
ssaa(lp463
S'ethernet'
p464
a(dp465
S'bootloader'
p466
(dp467
S'extended_fuses'
p468
S'0x05'
p469
sS'high_fuses'
p470
S'0xde'
p471
sS'low_fuses'
p472
S'0xff'
p473
sS'lock_bits'
p474
S'0x0F'
p475
sS'file'
p476
S'optiboot_atmega328.hex'
p477
sS'path'
p478
S'optiboot'
p479
sS'unlock_bits'
p480
S'0x3F'
p481
ssS'upload'
p482
(dp483
S'speed'
p484
S'115200'
p485
sS'maximum_size'
p486
S'32256'
p487
sS'protocol'
p488
S'arduino'
p489
ssS'name'
p490
S'Arduino Ethernet'
p491
sS'build'
p492
(dp493
S'f_cpu'
p494
S'16000000L'
p495
sS'mcu'
p496
S'atmega328p'
p497
sS'variant'
p498
S'standard'
p499
sS'core'
p500
S'arduino'
p501
ssaa(lp502
S'fio'
p503
a(dp504
S'bootloader'
p505
(dp506
S'extended_fuses'
p507
S'0x05'
p508
sS'high_fuses'
p509
S'0xDA'
p510
sS'low_fuses'
p511
S'0xFF'
p512
sS'lock_bits'
p513
S'0x0F'
p514
sS'file'
p515
S'ATmegaBOOT_168_atmega328_pro_8MHz.hex'
p516
sS'path'
p517
S'arduino:atmega'
p518
sS'unlock_bits'
p519
S'0x3F'
p520
ssS'upload'
p521
(dp522
S'speed'
p523
S'57600'
p524
sS'maximum_size'
p525
S'30720'
p526
sS'protocol'
p527
S'arduino'
p528
ssS'name'
p529
S'Arduino Fio'
p530
sS'build'
p531
(dp532
S'core'
p533
S'arduino'
p534
sS'mcu'
p535
S'atmega328p'
p536
sS'f_cpu'
p537
S'8000000L'
p538
sS'variant'
p539
S'eightanaloginputs'
p540
ssaa(lp541
S'bt328'
p542
a(dp543
S'bootloader'
p544
(dp545
S'extended_fuses'
p546
S'0x05'
p547
sS'high_fuses'
p548
S'0xd8'
p549
sS'low_fuses'
p550
S'0xff'
p551
sS'lock_bits'
p552
S'0x0F'
p553
sS'file'
p554
S'ATmegaBOOT_168_atmega328_bt.hex'
p555
sS'path'
p556
S'bt'
p557
sS'unlock_bits'
p558
S'0x3F'
p559
ssS'upload'
p560
(dp561
S'speed'
p562
S'19200'
p563
sS'maximum_size'
p564
S'28672'
p565
sS'protocol'
p566
S'arduino'
p567
sS'disable_flushing'
p568
S'true'
p569
ssS'name'
p570
S'Arduino BT w/ ATmega328'
p571
sS'build'
p572
(dp573
S'core'
p574
S'arduino'
p575
sS'mcu'
p576
S'atmega328p'
p577
sS'f_cpu'
p578
S'16000000L'
p579
sS'variant'
p580
S'eightanaloginputs'
p581
ssaa(lp582
S'bt'
p583
a(dp584
S'bootloader'
p585
(dp586
S'extended_fuses'
p587
S'0x00'
p588
sS'high_fuses'
p589
S'0xdd'
p590
sS'low_fuses'
p591
S'0xff'
p592
sS'lock_bits'
p593
S'0x0F'
p594
sS'file'
p595
S'ATmegaBOOT_168.hex'
p596
sS'path'
p597
S'bt'
p598
sS'unlock_bits'
p599
S'0x3F'
p600
ssS'upload'
p601
(dp602
S'speed'
p603
S'19200'
p604
sS'maximum_size'
p605
S'14336'
p606
sS'protocol'
p607
S'arduino'
p608
sS'disable_flushing'
p609
S'true'
p610
ssS'name'
p611
S'Arduino BT w/ ATmega168'
p612
sS'build'
p613
(dp614
S'core'
p615
S'arduino'
p616
sS'mcu'
p617
S'atmega168'
p618
sS'f_cpu'
p619
S'16000000L'
p620
sS'variant'
p621
S'eightanaloginputs'
p622
ssaa(lp623
S'lilypad328'
p624
a(dp625
S'bootloader'
p626
(dp627
S'extended_fuses'
p628
S'0x05'
p629
sS'high_fuses'
p630
S'0xDA'
p631
sS'low_fuses'
p632
S'0xFF'
p633
sS'lock_bits'
p634
S'0x0F'
p635
sS'file'
p636
S'ATmegaBOOT_168_atmega328_pro_8MHz.hex'
p637
sS'path'
p638
S'atmega'
p639
sS'unlock_bits'
p640
S'0x3F'
p641
ssS'upload'
p642
(dp643
S'speed'
p644
S'57600'
p645
sS'maximum_size'
p646
S'30720'
p647
sS'protocol'
p648
S'arduino'
p649
ssS'name'
p650
S'LilyPad Arduino w/ ATmega328'
p651
sS'build'
p652
(dp653
S'core'
p654
S'arduino'
p655
sS'mcu'
p656
S'atmega328p'
p657
sS'f_cpu'
p658
S'8000000L'
p659
sS'variant'
p660
S'standard'
p661
ssaa(lp662
S'lilypad'
p663
a(dp664
S'bootloader'
p665
(dp666
S'extended_fuses'
p667
S'0x00'
p668
sS'high_fuses'
p669
S'0xdd'
p670
sS'low_fuses'
p671
S'0xe2'
p672
sS'lock_bits'
p673
S'0x0F'
p674
sS'file'
p675
S'LilyPadBOOT_168.hex'
p676
sS'path'
p677
S'lilypad'
p678
sS'unlock_bits'
p679
S'0x3F'
p680
ssS'upload'
p681
(dp682
S'speed'
p683
S'19200'
p684
sS'maximum_size'
p685
S'14336'
p686
sS'protocol'
p687
S'arduino'
p688
ssS'name'
p689
S'LilyPad Arduino w/ ATmega168'
p690
sS'build'
p691
(dp692
S'core'
p693
S'arduino'
p694
sS'mcu'
p695
S'atmega168'
p696
sS'f_cpu'
p697
S'8000000L'
p698
sS'variant'
p699
S'standard'
p700
ssaa(lp701
S'pro5v328'
p702
a(dp703
S'bootloader'
p704
(dp705
S'extended_fuses'
p706
S'0x05'
p707
sS'high_fuses'
p708
S'0xDA'
p709
sS'low_fuses'
p710
S'0xFF'
p711
sS'lock_bits'
p712
S'0x0F'
p713
sS'file'
p714
S'ATmegaBOOT_168_atmega328.hex'
p715
sS'path'
p716
S'atmega'
p717
sS'unlock_bits'
p718
S'0x3F'
p719
ssS'upload'
p720
(dp721
S'speed'
p722
S'57600'
p723
sS'maximum_size'
p724
S'30720'
p725
sS'protocol'
p726
S'arduino'
p727
ssS'name'
p728
S'Arduino Pro or Pro Mini (5V, 16 MHz) w/ ATmega328'
p729
sS'build'
p730
(dp731
S'core'
p732
S'arduino'
p733
sS'mcu'
p734
S'atmega328p'
p735
sS'f_cpu'
p736
S'16000000L'
p737
sS'variant'
p738
S'standard'
p739
ssaa(lp740
S'pro5v'
p741
a(dp742
S'bootloader'
p743
(dp744
S'extended_fuses'
p745
S'0x00'
p746
sS'high_fuses'
p747
S'0xdd'
p748
sS'low_fuses'
p749
S'0xff'
p750
sS'lock_bits'
p751
S'0x0F'
p752
sS'file'
p753
S'ATmegaBOOT_168_diecimila.hex'
p754
sS'path'
p755
S'atmega'
p756
sS'unlock_bits'
p757
S'0x3F'
p758
ssS'upload'
p759
(dp760
S'speed'
p761
S'19200'
p762
sS'maximum_size'
p763
S'14336'
p764
sS'protocol'
p765
S'arduino'
p766
ssS'name'
p767
S'Arduino Pro or Pro Mini (5V, 16 MHz) w/ ATmega168'
p768
sS'build'
p769
(dp770
S'core'
p771
S'arduino'
p772
sS'mcu'
p773
S'atmega168'
p774
sS'f_cpu'
p775
S'16000000L'
p776
sS'variant'
p777
S'standard'
p778
ssaa(lp779
S'pro328'
p780
a(dp781
S'bootloader'
p782
(dp783
S'extended_fuses'
p784
S'0x05'
p785
sS'high_fuses'
p786
S'0xDA'
p787
sS'low_fuses'
p788
S'0xFF'
p789
sS'lock_bits'
p790
S'0x0F'
p791
sS'file'
p792
S'ATmegaBOOT_168_atmega328_pro_8MHz.hex'
p793
sS'path'
p794
S'atmega'
p795
sS'unlock_bits'
p796
S'0x3F'
p797
ssS'upload'
p798
(dp799
S'speed'
p800
S'57600'
p801
sS'maximum_size'
p802
S'30720'
p803
sS'protocol'
p804
S'arduino'
p805
ssS'name'
p806
S'Arduino Pro or Pro Mini (3.3V, 8 MHz) w/ ATmega328'
p807
sS'build'
p808
(dp809
S'core'
p810
S'arduino'
p811
sS'mcu'
p812
S'atmega328p'
p813
sS'f_cpu'
p814
S'8000000L'
p815
sS'variant'
p816
S'standard'
p817
ssaa(lp818
S'pro'
p819
a(dp820
S'bootloader'
p821
(dp822
S'extended_fuses'
p823
S'0x00'
p824
sS'high_fuses'
p825
S'0xdd'
p826
sS'low_fuses'
p827
S'0xc6'
p828
sS'lock_bits'
p829
S'0x0F'
p830
sS'file'
p831
S'ATmegaBOOT_168_pro_8MHz.hex'
p832
sS'path'
p833
S'atmega'
p834
sS'unlock_bits'
p835
S'0x3F'
p836
ssS'upload'
p837
(dp838
S'speed'
p839
S'19200'
p840
sS'maximum_size'
p841
S'14336'
p842
sS'protocol'
p843
S'arduino'
p844
ssS'name'
p845
S'Arduino Pro or Pro Mini (3.3V, 8 MHz) w/ ATmega168'
p846
sS'build'
p847
(dp848
S'core'
p849
S'arduino'
p850
sS'mcu'
p851
S'atmega168'
p852
sS'f_cpu'
p853
S'8000000L'
p854
sS'variant'
p855
S'standard'
p856
ssaa(lp857
S'atmega168'
p858
a(dp859
S'bootloader'
p860
(dp861
S'extended_fuses'
p862
S'0x00'
p863
sS'high_fuses'
p864
S'0xdd'
p865
sS'low_fuses'
p866
S'0xff'
p867
sS'lock_bits'
p868
S'0x0F'
p869
sS'file'
p870
S'ATmegaBOOT_168_ng.hex'
p871
sS'path'
p872
S'atmega'
p873
sS'unlock_bits'
p874
S'0x3F'
p875
ssS'upload'
p876
(dp877
S'speed'
p878
S'19200'
p879
sS'maximum_size'
p880
S'14336'
p881
sS'protocol'
p882
S'arduino'
p883
ssS'name'
p884
S'Arduino NG or older w/ ATmega168'
p885
sS'build'
p886
(dp887
S'core'
p888
S'arduino'
p889
sS'mcu'
p890
S'atmega168'
p891
sS'f_cpu'
p892
S'16000000L'
p893
sS'variant'
p894
S'standard'
p895
ssaa(lp896
S'atmega8'
p897
a(dp898
S'bootloader'
p899
(dp900
S'high_fuses'
p901
S'0xca'
p902
sS'low_fuses'
p903
S'0xdf'
p904
sS'lock_bits'
p905
S'0x0F'
p906
sS'file'
p907
S'ATmegaBOOT.hex'
p908
sS'path'
p909
S'atmega8'
p910
sS'unlock_bits'
p911
S'0x3F'
p912
ssS'upload'
p913
(dp914
S'speed'
p915
S'19200'
p916
sS'maximum_size'
p917
S'7168'
p918
sS'protocol'
p919
S'arduino'
p920
ssS'name'
p921
S'Arduino NG or older w/ ATmega8'
p922
sS'build'
p923
(dp924
S'core'
p925
S'arduino'
p926
sS'mcu'
p927
S'atmega8'
p928
sS'f_cpu'
p929
S'16000000L'
p930
sS'variant'
p931
S'standard'
p932
ssaatp933
Rp934
(dp935
S'default'
p936
S'uno'
p937
sbtp938
a(S'used_libs'
p939
(lp940
S'/usr/share/arduino/libraries/Servo'
p941
aS'/usr/share/arduino/libraries/SoftwareSerial'
p942
aS'/usr/share/arduino/libraries/Wire'
p943
aS'/usr/share/arduino/hardware/arduino/cores/arduino'
p944
atp945
a(S'make'
p946
S'/usr/bin/make'
p947
tp948
a(S'arduino_libraries_dir'
p949
S'/usr/share/arduino/libraries'
p950
tp951
a(S'cc'
p952
S'/usr/bin/avr-gcc'
p953
tp954
a(S'cflags'
p955
g2
(g3
g4
(lp956
tp957
Rp958
tp959
a(S'cxxflags'
p960
g2
(g3
g4
(lp961
S'-fno-exceptions'
p962
atp963
Rp964
tp965
a(S'arduino_variants_dir'
p966
S'/usr/share/arduino/hardware/arduino/variants'
p967
tp968
a(S'stty'
p969
S'/bin/stty'
p970
tp971
a(S'version.txt'
p972
S'/usr/share/arduino/lib/version.txt'
p973
tp974
a(S'arduino_core_dir'
p975
g944
tp976
a(S'boards.txt'
p977
S'/usr/share/arduino/hardware/arduino/boards.txt'
p978
tp979
a(S'avrdude.conf'
p980
S'/usr/share/arduino/hardware/tools/avrdude.conf'
p981
tp982
a(g42
g2
(g3
g4
(lp983
S'.build/uno/src/dependencies.d'
p984
aS'.build/uno/arduino/dependencies.d'
p985
aS'.build/uno/Servo/dependencies.d'
p986
aS'.build/uno/SoftwareSerial/dependencies.d'
p987
aS'.build/uno/Wire/dependencies.d'
p988
atp989
Rp990
tp991
a.