(lp0
(S'cppflags'
p1
ccopy_reg
_reconstructor
p2
(cino.utils
SpaceList
p3
c__builtin__
list
p4
(lp5
S'-mmcu=atmega328p'
p6
aS'-DF_CPU=16000000L'
p7
aS'-DARDUINO=101'
p8
aS'-I/usr/share/arduino/hardware/arduino/cores/arduino'
p9
aS'-ffunction-sections'
p10
aS'-fdata-sections'
p11
aS'-g'
p12
aS'-Os'
p13
aS'-w'
p14
aS'-I/usr/share/arduino/hardware/arduino/variants/standard'
p15
aS'-I/usr/share/arduino/libraries/Servo'
p16
aS'-I/usr/share/arduino/libraries/SoftwareSerial'
p17
aS'-I/usr/share/arduino/libraries/Wire'
p18
aS'-I/usr/share/arduino/libraries/Wire/utility'
p19
aS'-I/usr/share/arduino/hardware/arduino/cores/arduino'
p20
atp21
Rp22
tp23
a(S'cxx'
p24
S'/usr/bin/avr-g++'
p25
tp26
a(S'arduino_libraries_dir'
p27
S'/usr/share/arduino/libraries'
p28
tp29
a(S'avrdude'
p30
S'/usr/share/arduino/hardware/tools/avrdude'
p31
tp32
a(S'ar'
p33
S'/usr/bin/avr-ar'
p34
tp35
a(S'names'
p36
(dp37
S'cpp'
p38
S'%s.cpp'
p39
sS'obj'
p40
S'%s.o'
p41
sS'lib'
p42
S'lib%s.a'
p43
sS'deps'
p44
S'%s.d'
p45
stp46
a(S'ldflags'
p47
g2
(g3
g4
(lp48
g6
aS'-Wl,-Os'
p49
aS'-Wl,--gc-sections'
p50
atp51
Rp52
tp53
a(S'arduino_lib_version'
p54
g2
(cino.environment
Version
p55
c__builtin__
tuple
p56
(I1
I0
I1
tp57
tp58
Rp59
tp60
a(S'objcopy'
p61
S'/usr/bin/avr-objcopy'
p62
tp63
a(S'board_models'
p64
cino.environment
BoardModels
p65
((lp66
(lp67
S'uno'
p68
a(dp69
S'build'
p70
(dp71
S'core'
p72
S'arduino'
p73
sS'mcu'
p74
S'atmega328p'
p75
sS'f_cpu'
p76
S'16000000L'
p77
sS'variant'
p78
S'standard'
p79
ssS'bootloader'
p80
(dp81
S'extended_fuses'
p82
S'0x05'
p83
sS'high_fuses'
p84
S'0xde'
p85
sS'low_fuses'
p86
S'0xff'
p87
sS'lock_bits'
p88
S'0x0F'
p89
sS'file'
p90
S'optiboot_atmega328.hex'
p91
sS'path'
p92
S'optiboot'
p93
sS'unlock_bits'
p94
S'0x3F'
p95
ssS'upload'
p96
(dp97
S'protocol'
p98
S'arduino'
p99
sS'maximum_size'
p100
S'32256'
p101
sS'speed'
p102
S'115200'
p103
ssS'name'
p104
S'Arduino Uno'
p105
saa(lp106
S'atmega328'
p107
a(dp108
S'build'
p109
(dp110
S'core'
p111
S'arduino'
p112
sS'mcu'
p113
S'atmega328p'
p114
sS'f_cpu'
p115
S'16000000L'
p116
sS'variant'
p117
S'standard'
p118
ssS'bootloader'
p119
(dp120
S'extended_fuses'
p121
S'0x05'
p122
sS'high_fuses'
p123
S'0xDA'
p124
sS'low_fuses'
p125
S'0xFF'
p126
sS'lock_bits'
p127
S'0x0F'
p128
sS'file'
p129
S'ATmegaBOOT_168_atmega328.hex'
p130
sS'path'
p131
S'atmega'
p132
sS'unlock_bits'
p133
S'0x3F'
p134
ssS'upload'
p135
(dp136
S'protocol'
p137
S'arduino'
p138
sS'maximum_size'
p139
S'30720'
p140
sS'speed'
p141
S'57600'
p142
ssS'name'
p143
S'Arduino Duemilanove w/ ATmega328'
p144
saa(lp145
S'diecimila'
p146
a(dp147
S'build'
p148
(dp149
S'core'
p150
S'arduino'
p151
sS'mcu'
p152
S'atmega168'
p153
sS'f_cpu'
p154
S'16000000L'
p155
sS'variant'
p156
S'standard'
p157
ssS'bootloader'
p158
(dp159
S'extended_fuses'
p160
S'0x00'
p161
sS'high_fuses'
p162
S'0xdd'
p163
sS'low_fuses'
p164
S'0xff'
p165
sS'lock_bits'
p166
S'0x0F'
p167
sS'file'
p168
S'ATmegaBOOT_168_diecimila.hex'
p169
sS'path'
p170
S'atmega'
p171
sS'unlock_bits'
p172
S'0x3F'
p173
ssS'upload'
p174
(dp175
S'protocol'
p176
S'arduino'
p177
sS'maximum_size'
p178
S'14336'
p179
sS'speed'
p180
S'19200'
p181
ssS'name'
p182
S'Arduino Diecimila or Duemilanove w/ ATmega168'
p183
saa(lp184
S'nano328'
p185
a(dp186
S'build'
p187
(dp188
S'core'
p189
S'arduino'
p190
sS'mcu'
p191
S'atmega328p'
p192
sS'f_cpu'
p193
S'16000000L'
p194
sS'variant'
p195
S'eightanaloginputs'
p196
ssS'bootloader'
p197
(dp198
S'extended_fuses'
p199
S'0x05'
p200
sS'high_fuses'
p201
S'0xDA'
p202
sS'low_fuses'
p203
S'0xFF'
p204
sS'lock_bits'
p205
S'0x0F'
p206
sS'file'
p207
S'ATmegaBOOT_168_atmega328.hex'
p208
sS'path'
p209
S'atmega'
p210
sS'unlock_bits'
p211
S'0x3F'
p212
ssS'upload'
p213
(dp214
S'protocol'
p215
S'arduino'
p216
sS'maximum_size'
p217
S'30720'
p218
sS'speed'
p219
S'57600'
p220
ssS'name'
p221
S'Arduino Nano w/ ATmega328'
p222
saa(lp223
S'nano'
p224
a(dp225
S'build'
p226
(dp227
S'core'
p228
S'arduino'
p229
sS'mcu'
p230
S'atmega168'
p231
sS'f_cpu'
p232
S'16000000L'
p233
sS'variant'
p234
S'eightanaloginputs'
p235
ssS'bootloader'
p236
(dp237
S'extended_fuses'
p238
S'0x00'
p239
sS'high_fuses'
p240
S'0xdd'
p241
sS'low_fuses'
p242
S'0xff'
p243
sS'lock_bits'
p244
S'0x0F'
p245
sS'file'
p246
S'ATmegaBOOT_168_diecimila.hex'
p247
sS'path'
p248
S'atmega'
p249
sS'unlock_bits'
p250
S'0x3F'
p251
ssS'upload'
p252
(dp253
S'protocol'
p254
S'arduino'
p255
sS'maximum_size'
p256
S'14336'
p257
sS'speed'
p258
S'19200'
p259
ssS'name'
p260
S'Arduino Nano w/ ATmega168'
p261
saa(lp262
S'mega2560'
p263
a(dp264
S'build'
p265
(dp266
S'core'
p267
S'arduino'
p268
sS'mcu'
p269
S'atmega2560'
p270
sS'f_cpu'
p271
S'16000000L'
p272
sS'variant'
p273
S'mega'
p274
ssS'bootloader'
p275
(dp276
S'extended_fuses'
p277
S'0xFD'
p278
sS'high_fuses'
p279
S'0xD8'
p280
sS'low_fuses'
p281
S'0xFF'
p282
sS'lock_bits'
p283
S'0x0F'
p284
sS'file'
p285
S'stk500boot_v2_mega2560.hex'
p286
sS'path'
p287
S'stk500v2'
p288
sS'unlock_bits'
p289
S'0x3F'
p290
ssS'upload'
p291
(dp292
S'protocol'
p293
S'stk500v2'
p294
sS'maximum_size'
p295
S'258048'
p296
sS'speed'
p297
S'115200'
p298
ssS'name'
p299
S'Arduino Mega 2560 or Mega ADK'
p300
saa(lp301
S'mega'
p302
a(dp303
S'build'
p304
(dp305
S'core'
p306
S'arduino'
p307
sS'mcu'
p308
S'atmega1280'
p309
sS'f_cpu'
p310
S'16000000L'
p311
sS'variant'
p312
S'mega'
p313
ssS'bootloader'
p314
(dp315
S'extended_fuses'
p316
S'0xF5'
p317
sS'high_fuses'
p318
S'0xDA'
p319
sS'low_fuses'
p320
S'0xFF'
p321
sS'lock_bits'
p322
S'0x0F'
p323
sS'file'
p324
S'ATmegaBOOT_168_atmega1280.hex'
p325
sS'path'
p326
S'atmega'
p327
sS'unlock_bits'
p328
S'0x3F'
p329
ssS'upload'
p330
(dp331
S'protocol'
p332
S'arduino'
p333
sS'maximum_size'
p334
S'126976'
p335
sS'speed'
p336
S'57600'
p337
ssS'name'
p338
S'Arduino Mega (ATmega1280)'
p339
saa(lp340
S'leonardo'
p341
a(dp342
S'build'
p343
(dp344
S'core'
p345
S'arduino'
p346
sS'f_cpu'
p347
S'16000000L'
p348
sS'vid'
p349
S'0x2341'
p350
sS'pid'
p351
S'0x8036'
p352
sS'variant'
p353
S'leonardo'
p354
sS'mcu'
p355
S'atmega32u4'
p356
ssS'bootloader'
p357
(dp358
S'extended_fuses'
p359
S'0xcb'
p360
sS'high_fuses'
p361
S'0xd8'
p362
sS'low_fuses'
p363
S'0xff'
p364
sS'lock_bits'
p365
S'0x2F'
p366
sS'file'
p367
S'Caterina-Leonardo.hex'
p368
sS'path'
p369
S'caterina'
p370
sS'unlock_bits'
p371
S'0x3F'
p372
ssS'upload'
p373
(dp374
S'protocol'
p375
S'avr109'
p376
sS'maximum_size'
p377
S'28672'
p378
sS'speed'
p379
S'57600'
p380
sS'disable_flushing'
p381
S'true'
p382
ssS'name'
p383
S'Arduino Leonardo'
p384
saa(lp385
S'mini328'
p386
a(dp387
S'build'
p388
(dp389
S'core'
p390
S'arduino'
p391
sS'mcu'
p392
S'atmega328p'
p393
sS'f_cpu'
p394
S'16000000L'
p395
sS'variant'
p396
S'eightanaloginputs'
p397
ssS'bootloader'
p398
(dp399
S'extended_fuses'
p400
S'0x05'
p401
sS'high_fuses'
p402
S'0xd8'
p403
sS'low_fuses'
p404
S'0xff'
p405
sS'lock_bits'
p406
S'0x0F'
p407
sS'file'
p408
S'optiboot_atmega328-Mini.hex'
p409
sS'path'
p410
S'optiboot'
p411
sS'unlock_bits'
p412
S'0x3F'
p413
ssS'upload'
p414
(dp415
S'protocol'
p416
S'arduino'
p417
sS'maximum_size'
p418
S'28672'
p419
sS'speed'
p420
S'115200'
p421
ssS'name'
p422
S'Arduino Mini w/ ATmega328'
p423
saa(lp424
S'mini'
p425
a(dp426
S'build'
p427
(dp428
S'core'
p429
S'arduino'
p430
sS'mcu'
p431
S'atmega168'
p432
sS'f_cpu'
p433
S'16000000L'
p434
sS'variant'
p435
S'eightanaloginputs'
p436
ssS'bootloader'
p437
(dp438
S'extended_fuses'
p439
S'0x00'
p440
sS'high_fuses'
p441
S'0xdd'
p442
sS'low_fuses'
p443
S'0xff'
p444
sS'lock_bits'
p445
S'0x0F'
p446
sS'file'
p447
S'ATmegaBOOT_168_ng.hex'
p448
sS'path'
p449
S'atmega'
p450
sS'unlock_bits'
p451
S'0x3F'
p452
ssS'upload'
p453
(dp454
S'protocol'
p455
S'arduino'
p456
sS'maximum_size'
p457
S'14336'
p458
sS'speed'
p459
S'19200'
p460
ssS'name'
p461
S'Arduino Mini w/ ATmega168'
p462
saa(lp463
S'ethernet'
p464
a(dp465
S'build'
p466
(dp467
S'variant'
p468
S'standard'
p469
sS'mcu'
p470
S'atmega328p'
p471
sS'f_cpu'
p472
S'16000000L'
p473
sS'core'
p474
S'arduino'
p475
ssS'bootloader'
p476
(dp477
S'extended_fuses'
p478
S'0x05'
p479
sS'high_fuses'
p480
S'0xde'
p481
sS'low_fuses'
p482
S'0xff'
p483
sS'lock_bits'
p484
S'0x0F'
p485
sS'file'
p486
S'optiboot_atmega328.hex'
p487
sS'path'
p488
S'optiboot'
p489
sS'unlock_bits'
p490
S'0x3F'
p491
ssS'upload'
p492
(dp493
S'protocol'
p494
S'arduino'
p495
sS'maximum_size'
p496
S'32256'
p497
sS'speed'
p498
S'115200'
p499
ssS'name'
p500
S'Arduino Ethernet'
p501
saa(lp502
S'fio'
p503
a(dp504
S'build'
p505
(dp506
S'core'
p507
S'arduino'
p508
sS'mcu'
p509
S'atmega328p'
p510
sS'f_cpu'
p511
S'8000000L'
p512
sS'variant'
p513
S'eightanaloginputs'
p514
ssS'bootloader'
p515
(dp516
S'extended_fuses'
p517
S'0x05'
p518
sS'high_fuses'
p519
S'0xDA'
p520
sS'low_fuses'
p521
S'0xFF'
p522
sS'lock_bits'
p523
S'0x0F'
p524
sS'file'
p525
S'ATmegaBOOT_168_atmega328_pro_8MHz.hex'
p526
sS'path'
p527
S'arduino:atmega'
p528
sS'unlock_bits'
p529
S'0x3F'
p530
ssS'upload'
p531
(dp532
S'protocol'
p533
S'arduino'
p534
sS'maximum_size'
p535
S'30720'
p536
sS'speed'
p537
S'57600'
p538
ssS'name'
p539
S'Arduino Fio'
p540
saa(lp541
S'bt328'
p542
a(dp543
S'build'
p544
(dp545
S'core'
p546
S'arduino'
p547
sS'mcu'
p548
S'atmega328p'
p549
sS'f_cpu'
p550
S'16000000L'
p551
sS'variant'
p552
S'eightanaloginputs'
p553
ssS'bootloader'
p554
(dp555
S'extended_fuses'
p556
S'0x05'
p557
sS'high_fuses'
p558
S'0xd8'
p559
sS'low_fuses'
p560
S'0xff'
p561
sS'lock_bits'
p562
S'0x0F'
p563
sS'file'
p564
S'ATmegaBOOT_168_atmega328_bt.hex'
p565
sS'path'
p566
S'bt'
p567
sS'unlock_bits'
p568
S'0x3F'
p569
ssS'upload'
p570
(dp571
S'protocol'
p572
S'arduino'
p573
sS'maximum_size'
p574
S'28672'
p575
sS'speed'
p576
S'19200'
p577
sS'disable_flushing'
p578
S'true'
p579
ssS'name'
p580
S'Arduino BT w/ ATmega328'
p581
saa(lp582
S'bt'
p583
a(dp584
S'build'
p585
(dp586
S'core'
p587
S'arduino'
p588
sS'mcu'
p589
S'atmega168'
p590
sS'f_cpu'
p591
S'16000000L'
p592
sS'variant'
p593
S'eightanaloginputs'
p594
ssS'bootloader'
p595
(dp596
S'extended_fuses'
p597
S'0x00'
p598
sS'high_fuses'
p599
S'0xdd'
p600
sS'low_fuses'
p601
S'0xff'
p602
sS'lock_bits'
p603
S'0x0F'
p604
sS'file'
p605
S'ATmegaBOOT_168.hex'
p606
sS'path'
p607
S'bt'
p608
sS'unlock_bits'
p609
S'0x3F'
p610
ssS'upload'
p611
(dp612
S'protocol'
p613
S'arduino'
p614
sS'maximum_size'
p615
S'14336'
p616
sS'speed'
p617
S'19200'
p618
sS'disable_flushing'
p619
S'true'
p620
ssS'name'
p621
S'Arduino BT w/ ATmega168'
p622
saa(lp623
S'lilypad328'
p624
a(dp625
S'build'
p626
(dp627
S'core'
p628
S'arduino'
p629
sS'mcu'
p630
S'atmega328p'
p631
sS'f_cpu'
p632
S'8000000L'
p633
sS'variant'
p634
S'standard'
p635
ssS'bootloader'
p636
(dp637
S'extended_fuses'
p638
S'0x05'
p639
sS'high_fuses'
p640
S'0xDA'
p641
sS'low_fuses'
p642
S'0xFF'
p643
sS'lock_bits'
p644
S'0x0F'
p645
sS'file'
p646
S'ATmegaBOOT_168_atmega328_pro_8MHz.hex'
p647
sS'path'
p648
S'atmega'
p649
sS'unlock_bits'
p650
S'0x3F'
p651
ssS'upload'
p652
(dp653
S'protocol'
p654
S'arduino'
p655
sS'maximum_size'
p656
S'30720'
p657
sS'speed'
p658
S'57600'
p659
ssS'name'
p660
S'LilyPad Arduino w/ ATmega328'
p661
saa(lp662
S'lilypad'
p663
a(dp664
S'build'
p665
(dp666
S'core'
p667
S'arduino'
p668
sS'mcu'
p669
S'atmega168'
p670
sS'f_cpu'
p671
S'8000000L'
p672
sS'variant'
p673
S'standard'
p674
ssS'bootloader'
p675
(dp676
S'extended_fuses'
p677
S'0x00'
p678
sS'high_fuses'
p679
S'0xdd'
p680
sS'low_fuses'
p681
S'0xe2'
p682
sS'lock_bits'
p683
S'0x0F'
p684
sS'file'
p685
S'LilyPadBOOT_168.hex'
p686
sS'path'
p687
S'lilypad'
p688
sS'unlock_bits'
p689
S'0x3F'
p690
ssS'upload'
p691
(dp692
S'protocol'
p693
S'arduino'
p694
sS'maximum_size'
p695
S'14336'
p696
sS'speed'
p697
S'19200'
p698
ssS'name'
p699
S'LilyPad Arduino w/ ATmega168'
p700
saa(lp701
S'pro5v328'
p702
a(dp703
S'build'
p704
(dp705
S'core'
p706
S'arduino'
p707
sS'mcu'
p708
S'atmega328p'
p709
sS'f_cpu'
p710
S'16000000L'
p711
sS'variant'
p712
S'standard'
p713
ssS'bootloader'
p714
(dp715
S'extended_fuses'
p716
S'0x05'
p717
sS'high_fuses'
p718
S'0xDA'
p719
sS'low_fuses'
p720
S'0xFF'
p721
sS'lock_bits'
p722
S'0x0F'
p723
sS'file'
p724
S'ATmegaBOOT_168_atmega328.hex'
p725
sS'path'
p726
S'atmega'
p727
sS'unlock_bits'
p728
S'0x3F'
p729
ssS'upload'
p730
(dp731
S'protocol'
p732
S'arduino'
p733
sS'maximum_size'
p734
S'30720'
p735
sS'speed'
p736
S'57600'
p737
ssS'name'
p738
S'Arduino Pro or Pro Mini (5V, 16 MHz) w/ ATmega328'
p739
saa(lp740
S'pro5v'
p741
a(dp742
S'build'
p743
(dp744
S'core'
p745
S'arduino'
p746
sS'mcu'
p747
S'atmega168'
p748
sS'f_cpu'
p749
S'16000000L'
p750
sS'variant'
p751
S'standard'
p752
ssS'bootloader'
p753
(dp754
S'extended_fuses'
p755
S'0x00'
p756
sS'high_fuses'
p757
S'0xdd'
p758
sS'low_fuses'
p759
S'0xff'
p760
sS'lock_bits'
p761
S'0x0F'
p762
sS'file'
p763
S'ATmegaBOOT_168_diecimila.hex'
p764
sS'path'
p765
S'atmega'
p766
sS'unlock_bits'
p767
S'0x3F'
p768
ssS'upload'
p769
(dp770
S'protocol'
p771
S'arduino'
p772
sS'maximum_size'
p773
S'14336'
p774
sS'speed'
p775
S'19200'
p776
ssS'name'
p777
S'Arduino Pro or Pro Mini (5V, 16 MHz) w/ ATmega168'
p778
saa(lp779
S'pro328'
p780
a(dp781
S'build'
p782
(dp783
S'core'
p784
S'arduino'
p785
sS'mcu'
p786
S'atmega328p'
p787
sS'f_cpu'
p788
S'8000000L'
p789
sS'variant'
p790
S'standard'
p791
ssS'bootloader'
p792
(dp793
S'extended_fuses'
p794
S'0x05'
p795
sS'high_fuses'
p796
S'0xDA'
p797
sS'low_fuses'
p798
S'0xFF'
p799
sS'lock_bits'
p800
S'0x0F'
p801
sS'file'
p802
S'ATmegaBOOT_168_atmega328_pro_8MHz.hex'
p803
sS'path'
p804
S'atmega'
p805
sS'unlock_bits'
p806
S'0x3F'
p807
ssS'upload'
p808
(dp809
S'protocol'
p810
S'arduino'
p811
sS'maximum_size'
p812
S'30720'
p813
sS'speed'
p814
S'57600'
p815
ssS'name'
p816
S'Arduino Pro or Pro Mini (3.3V, 8 MHz) w/ ATmega328'
p817
saa(lp818
S'pro'
p819
a(dp820
S'build'
p821
(dp822
S'core'
p823
S'arduino'
p824
sS'mcu'
p825
S'atmega168'
p826
sS'f_cpu'
p827
S'8000000L'
p828
sS'variant'
p829
S'standard'
p830
ssS'bootloader'
p831
(dp832
S'extended_fuses'
p833
S'0x00'
p834
sS'high_fuses'
p835
S'0xdd'
p836
sS'low_fuses'
p837
S'0xc6'
p838
sS'lock_bits'
p839
S'0x0F'
p840
sS'file'
p841
S'ATmegaBOOT_168_pro_8MHz.hex'
p842
sS'path'
p843
S'atmega'
p844
sS'unlock_bits'
p845
S'0x3F'
p846
ssS'upload'
p847
(dp848
S'protocol'
p849
S'arduino'
p850
sS'maximum_size'
p851
S'14336'
p852
sS'speed'
p853
S'19200'
p854
ssS'name'
p855
S'Arduino Pro or Pro Mini (3.3V, 8 MHz) w/ ATmega168'
p856
saa(lp857
S'atmega168'
p858
a(dp859
S'build'
p860
(dp861
S'core'
p862
S'arduino'
p863
sS'mcu'
p864
S'atmega168'
p865
sS'f_cpu'
p866
S'16000000L'
p867
sS'variant'
p868
S'standard'
p869
ssS'bootloader'
p870
(dp871
S'extended_fuses'
p872
S'0x00'
p873
sS'high_fuses'
p874
S'0xdd'
p875
sS'low_fuses'
p876
S'0xff'
p877
sS'lock_bits'
p878
S'0x0F'
p879
sS'file'
p880
S'ATmegaBOOT_168_ng.hex'
p881
sS'path'
p882
S'atmega'
p883
sS'unlock_bits'
p884
S'0x3F'
p885
ssS'upload'
p886
(dp887
S'protocol'
p888
S'arduino'
p889
sS'maximum_size'
p890
S'14336'
p891
sS'speed'
p892
S'19200'
p893
ssS'name'
p894
S'Arduino NG or older w/ ATmega168'
p895
saa(lp896
S'atmega8'
p897
a(dp898
S'build'
p899
(dp900
S'core'
p901
S'arduino'
p902
sS'mcu'
p903
S'atmega8'
p904
sS'f_cpu'
p905
S'16000000L'
p906
sS'variant'
p907
S'standard'
p908
ssS'bootloader'
p909
(dp910
S'high_fuses'
p911
S'0xca'
p912
sS'low_fuses'
p913
S'0xdf'
p914
sS'lock_bits'
p915
S'0x0F'
p916
sS'file'
p917
S'ATmegaBOOT.hex'
p918
sS'path'
p919
S'atmega8'
p920
sS'unlock_bits'
p921
S'0x3F'
p922
ssS'upload'
p923
(dp924
S'protocol'
p925
S'arduino'
p926
sS'maximum_size'
p927
S'7168'
p928
sS'speed'
p929
S'19200'
p930
ssS'name'
p931
S'Arduino NG or older w/ ATmega8'
p932
saatp933
Rp934
(dp935
S'default'
p936
S'uno'
p937
sbtp938
a(S'used_libs'
p939
(lp940
S'/usr/share/arduino/libraries/Servo'
p941
aS'/usr/share/arduino/libraries/SoftwareSerial'
p942
aS'/usr/share/arduino/libraries/Wire'
p943
aS'/usr/share/arduino/hardware/arduino/cores/arduino'
p944
atp945
a(S'make'
p946
S'/usr/bin/make'
p947
tp948
a(S'build_dir'
p949
S'.build/uno'
p950
tp951
a(S'cc'
p952
S'/usr/bin/avr-gcc'
p953
tp954
a(S'cflags'
p955
g2
(g3
g4
(lp956
tp957
Rp958
tp959
a(S'cxxflags'
p960
g2
(g3
g4
(lp961
S'-fno-exceptions'
p962
atp963
Rp964
tp965
a(S'arduino_variants_dir'
p966
S'/usr/share/arduino/hardware/arduino/variants'
p967
tp968
a(S'stty'
p969
S'/bin/stty'
p970
tp971
a(S'version.txt'
p972
S'/usr/share/arduino/lib/version.txt'
p973
tp974
a(S'arduino_core_dir'
p975
g944
tp976
a(S'boards.txt'
p977
S'/usr/share/arduino/hardware/arduino/boards.txt'
p978
tp979
a(S'avrdude.conf'
p980
S'/usr/share/arduino/hardware/tools/avrdude.conf'
p981
tp982
a(g44
g2
(g3
g4
(lp983
S'.build/uno/src/dependencies.d'
p984
aS'.build/uno/arduino/dependencies.d'
p985
aS'.build/uno/Servo/dependencies.d'
p986
aS'.build/uno/SoftwareSerial/dependencies.d'
p987
aS'.build/uno/Wire/dependencies.d'
p988
atp989
Rp990
tp991
a.